target datalayout = "e-m:e-p270:32:32-p271:32:32-p272:64:64-i64:64-i128:128-f80:128-n8:16:32:64-S128"
target triple = "x86_64-pc-linux-gnu"

%struct.tparam_ctx = type { ptr }
%struct.ssl_conn_close_info_st = type { i64, i64, ptr, i64, i32 }
%struct.tparam_test = type { i64, i32, ptr, ptr, i64 }

@libctx = internal global ptr null, align 8
@.str.14 = private unnamed_addr constant [30 x i8] c"../openssl/test/quicapitest.c\00", align 1
@cert = internal global ptr null, align 8
@privkey = internal global ptr null, align 8
@.str.270 = private unnamed_addr constant [64 x i8] c"c_ctx = SSL_CTX_new_ex(libctx, NULL, OSSL_QUIC_client_method())\00", align 1
@.str.271 = private unnamed_addr constant [89 x i8] c"qtest_create_quic_objects(libctx, c_ctx, NULL, cert, privkey, 0, &s, &c_ssl, &qtf, NULL)\00", align 1
@.str.272 = private unnamed_addr constant [68 x i8] c"qtest_fault_set_hand_enc_ext_listener(qtf, tparam_on_enc_ext, &ctx)\00", align 1
@.str.273 = private unnamed_addr constant [70 x i8] c"qtest_create_quic_connection_ex(s, c_ssl, ctx.t->expect_fail != NULL)\00", align 1
@.str.274 = private unnamed_addr constant [52 x i8] c"SSL_get_conn_close_info(c_ssl, &info, sizeof(info))\00", align 1
@.str.275 = private unnamed_addr constant [50 x i8] c"(info.flags & SSL_CONN_CLOSE_FLAG_TRANSPORT) != 0\00", align 1
@.str.276 = private unnamed_addr constant [16 x i8] c"info.error_code\00", align 1
@.str.277 = private unnamed_addr constant [40 x i8] c"OSSL_QUIC_ERR_TRANSPORT_PARAMETER_ERROR\00", align 1
@.str.278 = private unnamed_addr constant [40 x i8] c"strstr(info.reason, ctx.t->expect_fail)\00", align 1
@.str.279 = private unnamed_addr constant [100 x i8] c"expected connection closure information mismatch during TPARAM test: flags=%llu ec=%llu reason='%s'\00", align 1
@.str.280 = private unnamed_addr constant [69 x i8] c"failed during test for id=%llu, op=%d, bl=%zu, expected failure='%s'\00", align 1
@.str.281 = private unnamed_addr constant [46 x i8] c"failed during test for id=%llu, op=%d, bl=%zu\00", align 1

; Function Attrs: nounwind uwtable
define internal i32 @test_tparam(i32 noundef %0) #0 {
  %2 = alloca i32, align 4
  %3 = alloca i32, align 4
  %4 = alloca i32, align 4
  %5 = alloca ptr, align 8
  %6 = alloca ptr, align 8
  %7 = alloca ptr, align 8
  %8 = alloca ptr, align 8
  %9 = alloca %struct.tparam_ctx, align 8
  %10 = alloca %struct.ssl_conn_close_info_st, align 8
  %11 = alloca i32, align 4
  store i32 %0, ptr %3, align 4, !tbaa !13
  call void @llvm.lifetime.start.p0(i64 4, ptr %4) #8
  store i32 0, ptr %4, align 4, !tbaa !13
  call void @llvm.lifetime.start.p0(i64 8, ptr %5) #8
  store ptr null, ptr %5, align 8, !tbaa !15
  call void @llvm.lifetime.start.p0(i64 8, ptr %6) #8
  store ptr null, ptr %6, align 8, !tbaa !17
  call void @llvm.lifetime.start.p0(i64 8, ptr %7) #8
  store ptr null, ptr %7, align 8, !tbaa !19
  call void @llvm.lifetime.start.p0(i64 8, ptr %8) #8
  store ptr null, ptr %8, align 8, !tbaa !45
  call void @llvm.lifetime.start.p0(i64 8, ptr %9) #8
  call void @llvm.memset.p0.i64(ptr align 8 %9, i8 0, i64 8, i1 false)
  %12 = load i32, ptr %3, align 4, !tbaa !13
  %13 = sext i32 %12 to i64
  %14 = getelementptr inbounds [75 x %struct.tparam_test], ptr @tparam_tests, i64 0, i64 %13
  %15 = getelementptr inbounds nuw %struct.tparam_ctx, ptr %9, i32 0, i32 0
  store ptr %14, ptr %15, align 8, !tbaa !52
  %16 = load ptr, ptr @libctx, align 8, !tbaa !4
  %17 = call ptr @OSSL_QUIC_client_method()
  %18 = call ptr @SSL_CTX_new_ex(ptr noundef %16, ptr noundef null, ptr noundef %17)
  store ptr %18, ptr %5, align 8, !tbaa !15
  %19 = call i32 @test_ptr(ptr noundef @.str.14, i32 noundef 2268, ptr noundef @.str.270, ptr noundef %18)
  %20 = icmp ne i32 %19, 0
  br i1 %20, label %22, label %21

21:                                               ; preds = %1
  br label %108

22:                                               ; preds = %1
  %23 = load ptr, ptr @libctx, align 8, !tbaa !4
  %24 = load ptr, ptr %5, align 8, !tbaa !15
  %25 = load ptr, ptr @cert, align 8, !tbaa !11
  %26 = load ptr, ptr @privkey, align 8, !tbaa !11
  %27 = call i32 @qtest_create_quic_objects(ptr noundef %23, ptr noundef %24, ptr noundef null, ptr noundef %25, ptr noundef %26, i32 noundef 0, ptr noundef %7, ptr noundef %6, ptr noundef %8, ptr noundef null)
  %28 = icmp ne i32 %27, 0
  %29 = zext i1 %28 to i32
  %30 = call i32 @test_true(ptr noundef @.str.14, i32 noundef 2273, ptr noundef @.str.271, i32 noundef %29)
  %31 = icmp ne i32 %30, 0
  br i1 %31, label %33, label %32

32:                                               ; preds = %22
  br label %108

33:                                               ; preds = %22
  %34 = load ptr, ptr %8, align 8, !tbaa !45
  %35 = call i32 @qtest_fault_set_hand_enc_ext_listener(ptr noundef %34, ptr noundef @tparam_on_enc_ext, ptr noundef %9)
  %36 = icmp ne i32 %35, 0
  %37 = zext i1 %36 to i32
  %38 = call i32 @test_true(ptr noundef @.str.14, i32 noundef 2277, ptr noundef @.str.272, i32 noundef %37)
  %39 = icmp ne i32 %38, 0
  br i1 %39, label %41, label %40

40:                                               ; preds = %33
  br label %108

41:                                               ; preds = %33
  %42 = load ptr, ptr %7, align 8, !tbaa !19
  %43 = load ptr, ptr %6, align 8, !tbaa !17
  %44 = getelementptr inbounds nuw %struct.tparam_ctx, ptr %9, i32 0, i32 0
  %45 = load ptr, ptr %44, align 8, !tbaa !52
  %46 = getelementptr inbounds nuw %struct.tparam_test, ptr %45, i32 0, i32 2
  %47 = load ptr, ptr %46, align 8, !tbaa !55
  %48 = icmp ne ptr %47, null
  %49 = zext i1 %48 to i32
  %50 = call i32 @qtest_create_quic_connection_ex(ptr noundef %42, ptr noundef %43, i32 noundef %49)
  %51 = icmp ne i32 %50, 0
  %52 = zext i1 %51 to i32
  %53 = call i32 @test_true(ptr noundef @.str.14, i32 noundef 2281, ptr noundef @.str.273, i32 noundef %52)
  %54 = icmp ne i32 %53, 0
  br i1 %54, label %56, label %55

55:                                               ; preds = %41
  br label %108

56:                                               ; preds = %41
  %57 = getelementptr inbounds nuw %struct.tparam_ctx, ptr %9, i32 0, i32 0
  %58 = load ptr, ptr %57, align 8, !tbaa !52
  %59 = getelementptr inbounds nuw %struct.tparam_test, ptr %58, i32 0, i32 2
  %60 = load ptr, ptr %59, align 8, !tbaa !55
  %61 = icmp ne ptr %60, null
  br i1 %61, label %62, label %107

62:                                               ; preds = %56
  call void @llvm.lifetime.start.p0(i64 40, ptr %10) #8
  call void @llvm.memset.p0.i64(ptr align 8 %10, i8 0, i64 40, i1 false)
  %63 = load ptr, ptr %6, align 8, !tbaa !17
  %64 = call i32 @SSL_get_conn_close_info(ptr noundef %63, ptr noundef %10, i64 noundef 40)
  %65 = icmp ne i32 %64, 0
  %66 = zext i1 %65 to i32
  %67 = call i32 @test_true(ptr noundef @.str.14, i32 noundef 2287, ptr noundef @.str.274, i32 noundef %66)
  %68 = icmp ne i32 %67, 0
  br i1 %68, label %70, label %69

69:                                               ; preds = %62
  store i32 2, ptr %11, align 4
  br label %104

70:                                               ; preds = %62
  %71 = getelementptr inbounds nuw %struct.ssl_conn_close_info_st, ptr %10, i32 0, i32 4
  %72 = load i32, ptr %71, align 8, !tbaa !57
  %73 = and i32 %72, 2
  %74 = icmp ne i32 %73, 0
  %75 = zext i1 %74 to i32
  %76 = icmp ne i32 %75, 0
  %77 = zext i1 %76 to i32
  %78 = call i32 @test_true(ptr noundef @.str.14, i32 noundef 2290, ptr noundef @.str.275, i32 noundef %77)
  %79 = icmp ne i32 %78, 0
  br i1 %79, label %80, label %95

80:                                               ; preds = %70
  %81 = getelementptr inbounds nuw %struct.ssl_conn_close_info_st, ptr %10, i32 0, i32 0
  %82 = load i64, ptr %81, align 8, !tbaa !59
  %83 = call i32 @test_uint64_t_eq(ptr noundef @.str.14, i32 noundef 2291, ptr noundef @.str.276, ptr noundef @.str.277, i64 noundef %82, i64 noundef 8)
  %84 = icmp ne i32 %83, 0
  br i1 %84, label %85, label %95

85:                                               ; preds = %80
  %86 = getelementptr inbounds nuw %struct.ssl_conn_close_info_st, ptr %10, i32 0, i32 2
  %87 = load ptr, ptr %86, align 8, !tbaa !60
  %88 = getelementptr inbounds nuw %struct.tparam_ctx, ptr %9, i32 0, i32 0
  %89 = load ptr, ptr %88, align 8, !tbaa !52
  %90 = getelementptr inbounds nuw %struct.tparam_test, ptr %89, i32 0, i32 2
  %91 = load ptr, ptr %90, align 8, !tbaa !55
  %92 = call ptr @strstr(ptr noundef %87, ptr noundef %91) #9
  %93 = call i32 @test_ptr(ptr noundef @.str.14, i32 noundef 2292, ptr noundef @.str.278, ptr noundef %92)
  %94 = icmp ne i32 %93, 0
  br i1 %94, label %103, label %95

95:                                               ; preds = %85, %80, %70
  %96 = getelementptr inbounds nuw %struct.ssl_conn_close_info_st, ptr %10, i32 0, i32 4
  %97 = load i32, ptr %96, align 8, !tbaa !57
  %98 = zext i32 %97 to i64
  %99 = getelementptr inbounds nuw %struct.ssl_conn_close_info_st, ptr %10, i32 0, i32 0
  %100 = load i64, ptr %99, align 8, !tbaa !59
  %101 = getelementptr inbounds nuw %struct.ssl_conn_close_info_st, ptr %10, i32 0, i32 2
  %102 = load ptr, ptr %101, align 8, !tbaa !60
  call void (ptr, i32, ptr, ...) @test_error(ptr noundef @.str.14, i32 noundef 2297, ptr noundef @.str.279, i64 noundef %98, i64 noundef %100, ptr noundef %102)
  store i32 2, ptr %11, align 4
  br label %104

103:                                              ; preds = %85
  store i32 0, ptr %11, align 4
  br label %104

104:                                              ; preds = %95, %69, %103
  call void @llvm.lifetime.end.p0(i64 40, ptr %10) #8
  %105 = load i32, ptr %11, align 4
  switch i32 %105, label %154 [
    i32 0, label %106
    i32 2, label %108
  ]

106:                                              ; preds = %104
  br label %107

107:                                              ; preds = %106, %56
  store i32 1, ptr %4, align 4, !tbaa !13
  br label %108

108:                                              ; preds = %107, %104, %55, %40, %32, %21
  %109 = load i32, ptr %4, align 4, !tbaa !13
  %110 = icmp ne i32 %109, 0
  br i1 %110, label %148, label %111

111:                                              ; preds = %108
  %112 = getelementptr inbounds nuw %struct.tparam_ctx, ptr %9, i32 0, i32 0
  %113 = load ptr, ptr %112, align 8, !tbaa !52
  %114 = getelementptr inbounds nuw %struct.tparam_test, ptr %113, i32 0, i32 2
  %115 = load ptr, ptr %114, align 8, !tbaa !55
  %116 = icmp ne ptr %115, null
  br i1 %116, label %117, label %134

117:                                              ; preds = %111
  %118 = getelementptr inbounds nuw %struct.tparam_ctx, ptr %9, i32 0, i32 0
  %119 = load ptr, ptr %118, align 8, !tbaa !52
  %120 = getelementptr inbounds nuw %struct.tparam_test, ptr %119, i32 0, i32 0
  %121 = load i64, ptr %120, align 8, !tbaa !61
  %122 = getelementptr inbounds nuw %struct.tparam_ctx, ptr %9, i32 0, i32 0
  %123 = load ptr, ptr %122, align 8, !tbaa !52
  %124 = getelementptr inbounds nuw %struct.tparam_test, ptr %123, i32 0, i32 1
  %125 = load i32, ptr %124, align 8, !tbaa !62
  %126 = getelementptr inbounds nuw %struct.tparam_ctx, ptr %9, i32 0, i32 0
  %127 = load ptr, ptr %126, align 8, !tbaa !52
  %128 = getelementptr inbounds nuw %struct.tparam_test, ptr %127, i32 0, i32 4
  %129 = load i64, ptr %128, align 8, !tbaa !63
  %130 = getelementptr inbounds nuw %struct.tparam_ctx, ptr %9, i32 0, i32 0
  %131 = load ptr, ptr %130, align 8, !tbaa !52
  %132 = getelementptr inbounds nuw %struct.tparam_test, ptr %131, i32 0, i32 2
  %133 = load ptr, ptr %132, align 8, !tbaa !55
  call void (ptr, i32, ptr, ...) @test_info(ptr noundef @.str.14, i32 noundef 2308, ptr noundef @.str.280, i64 noundef %121, i32 noundef %125, i64 noundef %129, ptr noundef %133)
  br label %147

134:                                              ; preds = %111
  %135 = getelementptr inbounds nuw %struct.tparam_ctx, ptr %9, i32 0, i32 0
  %136 = load ptr, ptr %135, align 8, !tbaa !52
  %137 = getelementptr inbounds nuw %struct.tparam_test, ptr %136, i32 0, i32 0
  %138 = load i64, ptr %137, align 8, !tbaa !61
  %139 = getelementptr inbounds nuw %struct.tparam_ctx, ptr %9, i32 0, i32 0
  %140 = load ptr, ptr %139, align 8, !tbaa !52
  %141 = getelementptr inbounds nuw %struct.tparam_test, ptr %140, i32 0, i32 1
  %142 = load i32, ptr %141, align 8, !tbaa !62
  %143 = getelementptr inbounds nuw %struct.tparam_ctx, ptr %9, i32 0, i32 0
  %144 = load ptr, ptr %143, align 8, !tbaa !52
  %145 = getelementptr inbounds nuw %struct.tparam_test, ptr %144, i32 0, i32 4
  %146 = load i64, ptr %145, align 8, !tbaa !63
  call void (ptr, i32, ptr, ...) @test_info(ptr noundef @.str.14, i32 noundef 2311, ptr noundef @.str.281, i64 noundef %138, i32 noundef %142, i64 noundef %146)
  br label %147

147:                                              ; preds = %134, %117
  br label %148

148:                                              ; preds = %147, %108
  %149 = load ptr, ptr %7, align 8, !tbaa !19
  call void @ossl_quic_tserver_free(ptr noundef %149)
  %150 = load ptr, ptr %6, align 8, !tbaa !17
  call void @SSL_free(ptr noundef %150)
  %151 = load ptr, ptr %5, align 8, !tbaa !15
  call void @SSL_CTX_free(ptr noundef %151)
  %152 = load ptr, ptr %8, align 8, !tbaa !45
  call void @qtest_fault_free(ptr noundef %152)
  %153 = load i32, ptr %4, align 4, !tbaa !13
  store i32 %153, ptr %2, align 4
  store i32 1, ptr %11, align 4
  br label %154

154:                                              ; preds = %148, %104
  call void @llvm.lifetime.end.p0(i64 8, ptr %9) #8
  call void @llvm.lifetime.end.p0(i64 8, ptr %8) #8
  call void @llvm.lifetime.end.p0(i64 8, ptr %7) #8
  call void @llvm.lifetime.end.p0(i64 8, ptr %6) #8
  call void @llvm.lifetime.end.p0(i64 8, ptr %5) #8
  call void @llvm.lifetime.end.p0(i64 4, ptr %4) #8
  %155 = load i32, ptr %2, align 4
  ret i32 %155
}