; Function Attrs: nounwind uwtable
define internal range(i32 0, 2) i32 @test_tparam(i32 noundef %0) #1 {
  %2 = alloca ptr, align 8
  %3 = alloca ptr, align 8
  %4 = alloca ptr, align 8
  %5 = alloca %struct.tparam_ctx, align 8
  %6 = alloca %struct.ssl_conn_close_info_st, align 8
  call void @llvm.lifetime.start.p0(i64 8, ptr nonnull %2) #10
  store ptr null, ptr %2, align 8, !tbaa !13
  call void @llvm.lifetime.start.p0(i64 8, ptr nonnull %3) #10
  store ptr null, ptr %3, align 8, !tbaa !15
  call void @llvm.lifetime.start.p0(i64 8, ptr nonnull %4) #10
  store ptr null, ptr %4, align 8, !tbaa !42
  call void @llvm.lifetime.start.p0(i64 8, ptr nonnull %5) #10
  %7 = sext i32 %0 to i64
  %8 = getelementptr inbounds [75 x %struct.tparam_test], ptr @tparam_tests, i64 0, i64 %7
  store ptr %8, ptr %5, align 8, !tbaa !51
  %9 = load ptr, ptr @libctx, align 8, !tbaa !4
  %10 = tail call ptr @OSSL_QUIC_client_method() #10
  %11 = tail call ptr @SSL_CTX_new_ex(ptr noundef %9, ptr noundef null, ptr noundef %10) #10
  %12 = tail call i32 @test_ptr(ptr noundef nonnull @.str.14, i32 noundef 2268, ptr noundef nonnull @.str.270, ptr noundef %11) #10
  %.not = icmp eq i32 %12, 0
  br i1 %.not, label %70, label %13

13:                                               ; preds = %1
  %14 = load ptr, ptr @libctx, align 8, !tbaa !4
  %15 = load ptr, ptr @cert, align 8, !tbaa !11
  %16 = load ptr, ptr @privkey, align 8, !tbaa !11
  %17 = call i32 @qtest_create_quic_objects(ptr noundef %14, ptr noundef %11, ptr noundef null, ptr noundef %15, ptr noundef %16, i32 noundef 0, ptr noundef nonnull %3, ptr noundef nonnull %2, ptr noundef nonnull %4, ptr noundef null) #10
  %18 = icmp ne i32 %17, 0
  %19 = zext i1 %18 to i32
  %20 = call i32 @test_true(ptr noundef nonnull @.str.14, i32 noundef 2273, ptr noundef nonnull @.str.271, i32 noundef %19) #10
  %.not9 = icmp eq i32 %20, 0
  br i1 %.not9, label %70, label %21

21:                                               ; preds = %13
  %22 = load ptr, ptr %4, align 8, !tbaa !42
  %23 = call i32 @qtest_fault_set_hand_enc_ext_listener(ptr noundef %22, ptr noundef nonnull @tparam_on_enc_ext, ptr noundef nonnull %5) #10
  %24 = icmp ne i32 %23, 0
  %25 = zext i1 %24 to i32
  %26 = call i32 @test_true(ptr noundef nonnull @.str.14, i32 noundef 2277, ptr noundef nonnull @.str.272, i32 noundef %25) #10
  %.not10 = icmp eq i32 %26, 0
  %.pre29 = load ptr, ptr %5, align 8, !tbaa !51
  br i1 %.not10, label %70, label %27

27:                                               ; preds = %21
  %28 = load ptr, ptr %3, align 8, !tbaa !15
  %29 = load ptr, ptr %2, align 8, !tbaa !13
  %30 = getelementptr inbounds nuw i8, ptr %.pre29, i64 16
  %31 = load ptr, ptr %30, align 8, !tbaa !54
  %32 = icmp ne ptr %31, null
  %33 = zext i1 %32 to i32
  %34 = call i32 @qtest_create_quic_connection_ex(ptr noundef %28, ptr noundef %29, i32 noundef %33) #10
  %35 = icmp ne i32 %34, 0
  %36 = zext i1 %35 to i32
  %37 = call i32 @test_true(ptr noundef nonnull @.str.14, i32 noundef 2281, ptr noundef nonnull @.str.273, i32 noundef %36) #10
  %.not11 = icmp eq i32 %37, 0
  %.pre28 = load ptr, ptr %5, align 8, !tbaa !51
  br i1 %.not11, label %70, label %38

38:                                               ; preds = %27
  %39 = getelementptr inbounds nuw i8, ptr %.pre28, i64 16
  %40 = load ptr, ptr %39, align 8, !tbaa !54
  %.not12 = icmp eq ptr %40, null
  br i1 %.not12, label %81, label %41

41:                                               ; preds = %38
  call void @llvm.lifetime.start.p0(i64 40, ptr nonnull %6) #10
  call void @llvm.memset.p0.i64(ptr noundef nonnull align 8 dereferenceable(40) %6, i8 0, i64 40, i1 false)
  %42 = load ptr, ptr %2, align 8, !tbaa !13
  %43 = call i32 @SSL_get_conn_close_info(ptr noundef %42, ptr noundef nonnull %6, i64 noundef 40) #10
  %44 = icmp ne i32 %43, 0
  %45 = zext i1 %44 to i32
  %46 = call i32 @test_true(ptr noundef nonnull @.str.14, i32 noundef 2287, ptr noundef nonnull @.str.274, i32 noundef %45) #10
  %.not13 = icmp eq i32 %46, 0
  br i1 %.not13, label %.thread, label %47

47:                                               ; preds = %41
  %48 = getelementptr inbounds nuw i8, ptr %6, i64 32
  %49 = load i32, ptr %48, align 8, !tbaa !56
  %50 = lshr i32 %49, 1
  %.lobit = and i32 %50, 1
  %51 = call i32 @test_true(ptr noundef nonnull @.str.14, i32 noundef 2290, ptr noundef nonnull @.str.275, i32 noundef %.lobit) #10
  %.not14 = icmp eq i32 %51, 0
  br i1 %.not14, label %63, label %52

52:                                               ; preds = %47
  %53 = load i64, ptr %6, align 8, !tbaa !58
  %54 = call i32 @test_uint64_t_eq(ptr noundef nonnull @.str.14, i32 noundef 2291, ptr noundef nonnull @.str.276, ptr noundef nonnull @.str.277, i64 noundef %53, i64 noundef 8) #10
  %.not15 = icmp eq i32 %54, 0
  br i1 %.not15, label %63, label %55

55:                                               ; preds = %52
  %56 = getelementptr inbounds nuw i8, ptr %6, i64 16
  %57 = load ptr, ptr %56, align 8, !tbaa !59
  %58 = load ptr, ptr %5, align 8, !tbaa !51
  %59 = getelementptr inbounds nuw i8, ptr %58, i64 16
  %60 = load ptr, ptr %59, align 8, !tbaa !54
  %61 = call ptr @strstr(ptr noundef nonnull dereferenceable(1) %57, ptr noundef nonnull dereferenceable(1) %60) #11
  %62 = call i32 @test_ptr(ptr noundef nonnull @.str.14, i32 noundef 2292, ptr noundef nonnull @.str.278, ptr noundef %61) #10
  %.not16 = icmp eq i32 %62, 0
  br i1 %.not16, label %63, label %69

63:                                               ; preds = %55, %52, %47
  %64 = load i32, ptr %48, align 8, !tbaa !56
  %65 = zext i32 %64 to i64
  %66 = load i64, ptr %6, align 8, !tbaa !58
  %67 = getelementptr inbounds nuw i8, ptr %6, i64 16
  %68 = load ptr, ptr %67, align 8, !tbaa !59
  call void (ptr, i32, ptr, ...) @test_error(ptr noundef nonnull @.str.14, i32 noundef 2297, ptr noundef nonnull @.str.279, i64 noundef %65, i64 noundef %66, ptr noundef %68) #10
  br label %.thread

.thread:                                          ; preds = %63, %41
  call void @llvm.lifetime.end.p0(i64 40, ptr nonnull %6) #10
  %.pre = load ptr, ptr %5, align 8, !tbaa !51
  br label %70

69:                                               ; preds = %55
  call void @llvm.lifetime.end.p0(i64 40, ptr nonnull %6) #10
  br label %81

70:                                               ; preds = %27, %21, %13, %1, %.thread
  %71 = phi ptr [ %.pre28, %27 ], [ %.pre29, %21 ], [ %8, %13 ], [ %8, %1 ], [ %.pre, %.thread ]
  %72 = getelementptr inbounds nuw i8, ptr %71, i64 16
  %73 = load ptr, ptr %72, align 8, !tbaa !54
  %.not18 = icmp eq ptr %73, null
  %74 = load i64, ptr %71, align 8, !tbaa !60
  %75 = getelementptr inbounds nuw i8, ptr %71, i64 8
  %76 = load i32, ptr %75, align 8, !tbaa !61
  %77 = getelementptr inbounds nuw i8, ptr %71, i64 32
  %78 = load i64, ptr %77, align 8, !tbaa !62
  br i1 %.not18, label %80, label %79

79:                                               ; preds = %70
  call void (ptr, i32, ptr, ...) @test_info(ptr noundef nonnull @.str.14, i32 noundef 2308, ptr noundef nonnull @.str.280, i64 noundef %74, i32 noundef %76, i64 noundef %78, ptr noundef nonnull %73) #10
  br label %81

80:                                               ; preds = %70
  call void (ptr, i32, ptr, ...) @test_info(ptr noundef nonnull @.str.14, i32 noundef 2311, ptr noundef nonnull @.str.281, i64 noundef %74, i32 noundef %76, i64 noundef %78) #10
  br label %81

81:                                               ; preds = %69, %38, %79, %80
  %.0626 = phi i32 [ 0, %79 ], [ 0, %80 ], [ 1, %69 ], [ 1, %38 ]
  %82 = load ptr, ptr %3, align 8, !tbaa !15
  call void @ossl_quic_tserver_free(ptr noundef %82) #10
  %83 = load ptr, ptr %2, align 8, !tbaa !13
  call void @SSL_free(ptr noundef %83) #10
  call void @SSL_CTX_free(ptr noundef %11) #10
  %84 = load ptr, ptr %4, align 8, !tbaa !42
  call void @qtest_fault_free(ptr noundef %84) #10
  call void @llvm.lifetime.end.p0(i64 8, ptr nonnull %5) #10
  call void @llvm.lifetime.end.p0(i64 8, ptr nonnull %4) #10
  call void @llvm.lifetime.end.p0(i64 8, ptr nonnull %3) #10
  call void @llvm.lifetime.end.p0(i64 8, ptr nonnull %2) #10
  ret i32 %.0626
}